	.file	"try.cpp"
	.text
	.p2align 4,,15
	.def	___tcf_0;	.scl	3;	.type	32;	.endef
___tcf_0:
LFB7459:
	.cfi_startproc
	movl	$__ZStL8__ioinit, %ecx
	jmp	__ZNSt8ios_base4InitD1Ev
	.cfi_endproc
LFE7459:
	.def	___main;	.scl	2;	.type	32;	.endef
	.section	.text.startup,"x"
	.p2align 4,,15
	.globl	_main
	.def	_main;	.scl	2;	.type	32;	.endef
_main:
LFB6874:
	.cfi_startproc
	pushl	%ebp
	.cfi_def_cfa_offset 8
	.cfi_offset 5, -8
	movl	%esp, %ebp
	.cfi_def_cfa_register 5
	andl	$-16, %esp
	call	___main
	xorl	%eax, %eax
	leave
	.cfi_restore 5
	.cfi_def_cfa 4, 4
	ret
	.cfi_endproc
LFE6874:
	.p2align 4,,15
	.def	__GLOBAL__sub_I_main;	.scl	3;	.type	32;	.endef
__GLOBAL__sub_I_main:
LFB7460:
	.cfi_startproc
	subl	$28, %esp
	.cfi_def_cfa_offset 32
	movl	$__ZStL8__ioinit, %ecx
	call	__ZNSt8ios_base4InitC1Ev
	movl	$___tcf_0, (%esp)
	call	_atexit
	addl	$28, %esp
	.cfi_def_cfa_offset 4
	ret
	.cfi_endproc
LFE7460:
	.section	.ctors,"w"
	.align 4
	.long	__GLOBAL__sub_I_main
.lcomm __ZStL8__ioinit,1,1
	.ident	"GCC: (GNU) 4.8.1"
	.def	__ZNSt8ios_base4InitD1Ev;	.scl	2;	.type	32;	.endef
	.def	__ZNSt8ios_base4InitC1Ev;	.scl	2;	.type	32;	.endef
	.def	_atexit;	.scl	2;	.type	32;	.endef
